target datalayout = "e-m:e-p270:32:32-p271:32:32-p272:64:64-i64:64-i128:128-f80:128-n8:16:32:64-S128"
target triple = "x86_64-pc-linux-gnu"

%struct.mtree_entry = type { %struct.archive_rb_node, ptr, ptr, ptr, ptr, i8, i8 }
%struct.archive_rb_node = type { [2 x ptr], i64 }

@.str.47 = private unnamed_addr constant [2 x i8] c".\00", align 1

; Function Attrs: nounwind uwtable
define internal void @parse_escapes(ptr noundef %0, ptr noundef %1) #0 {
  %3 = alloca ptr, align 8
  %4 = alloca ptr, align 8
  %5 = alloca ptr, align 8
  %6 = alloca i8, align 1
  store ptr %0, ptr %3, align 8
  store ptr %1, ptr %4, align 8
  %7 = load ptr, ptr %3, align 8
  store ptr %7, ptr %5, align 8
  %8 = load ptr, ptr %4, align 8
  %9 = icmp ne ptr %8, null
  br i1 %9, label %10, label %17

10:                                               ; preds = %2
  %11 = load ptr, ptr %3, align 8
  %12 = call i32 @strcmp(ptr noundef %11, ptr noundef @.str.47) #11
  %13 = icmp eq i32 %12, 0
  br i1 %13, label %14, label %17

14:                                               ; preds = %10
  %15 = load ptr, ptr %4, align 8
  %16 = getelementptr inbounds %struct.mtree_entry, ptr %15, i32 0, i32 5
  store i8 1, ptr %16, align 8
  br label %17

17:                                               ; preds = %14, %10, %2
  br label %18

18:                                               ; preds = %143, %17
  %19 = load ptr, ptr %3, align 8
  %20 = load i8, ptr %19, align 1
  %21 = sext i8 %20 to i32
  %22 = icmp ne i32 %21, 0
  br i1 %22, label %23, label %147

23:                                               ; preds = %18
  %24 = load ptr, ptr %3, align 8
  %25 = getelementptr inbounds i8, ptr %24, i32 1
  store ptr %25, ptr %3, align 8
  %26 = load i8, ptr %24, align 1
  store i8 %26, ptr %6, align 1
  %27 = load i8, ptr %6, align 1
  %28 = sext i8 %27 to i32
  %29 = icmp eq i32 %28, 47
  br i1 %29, label %30, label %36

30:                                               ; preds = %23
  %31 = load ptr, ptr %4, align 8
  %32 = icmp ne ptr %31, null
  br i1 %32, label %33, label %36

33:                                               ; preds = %30
  %34 = load ptr, ptr %4, align 8
  %35 = getelementptr inbounds %struct.mtree_entry, ptr %34, i32 0, i32 5
  store i8 1, ptr %35, align 8
  br label %36

36:                                               ; preds = %33, %30, %23
  %37 = load i8, ptr %6, align 1
  %38 = sext i8 %37 to i32
  %39 = icmp eq i32 %38, 92
  br i1 %39, label %40, label %143

40:                                               ; preds = %36
  %41 = load ptr, ptr %3, align 8
  %42 = getelementptr inbounds i8, ptr %41, i64 0
  %43 = load i8, ptr %42, align 1
  %44 = sext i8 %43 to i32
  switch i32 %44, label %142 [
    i32 48, label %45
    i32 49, label %61
    i32 50, label %61
    i32 51, label %61
    i32 97, label %115
    i32 98, label %118
    i32 102, label %121
    i32 110, label %124
    i32 114, label %127
    i32 115, label %130
    i32 116, label %133
    i32 118, label %136
    i32 92, label %139
  ]

45:                                               ; preds = %40
  %46 = load ptr, ptr %3, align 8
  %47 = getelementptr inbounds i8, ptr %46, i64 1
  %48 = load i8, ptr %47, align 1
  %49 = sext i8 %48 to i32
  %50 = icmp slt i32 %49, 48
  br i1 %50, label %57, label %51

51:                                               ; preds = %45
  %52 = load ptr, ptr %3, align 8
  %53 = getelementptr inbounds i8, ptr %52, i64 1
  %54 = load i8, ptr %53, align 1
  %55 = sext i8 %54 to i32
  %56 = icmp sgt i32 %55, 55
  br i1 %56, label %57, label %60

57:                                               ; preds = %51, %45
  store i8 0, ptr %6, align 1
  %58 = load ptr, ptr %3, align 8
  %59 = getelementptr inbounds i8, ptr %58, i32 1
  store ptr %59, ptr %3, align 8
  br label %142

60:                                               ; preds = %51
  br label %61

61:                                               ; preds = %60, %40, %40, %40
  %62 = load ptr, ptr %3, align 8
  %63 = getelementptr inbounds i8, ptr %62, i64 1
  %64 = load i8, ptr %63, align 1
  %65 = sext i8 %64 to i32
  %66 = icmp sge i32 %65, 48
  br i1 %66, label %67, label %114

67:                                               ; preds = %61
  %68 = load ptr, ptr %3, align 8
  %69 = getelementptr inbounds i8, ptr %68, i64 1
  %70 = load i8, ptr %69, align 1
  %71 = sext i8 %70 to i32
  %72 = icmp sle i32 %71, 55
  br i1 %72, label %73, label %114

73:                                               ; preds = %67
  %74 = load ptr, ptr %3, align 8
  %75 = getelementptr inbounds i8, ptr %74, i64 2
  %76 = load i8, ptr %75, align 1
  %77 = sext i8 %76 to i32
  %78 = icmp sge i32 %77, 48
  br i1 %78, label %79, label %114

79:                                               ; preds = %73
  %80 = load ptr, ptr %3, align 8
  %81 = getelementptr inbounds i8, ptr %80, i64 2
  %82 = load i8, ptr %81, align 1
  %83 = sext i8 %82 to i32
  %84 = icmp sle i32 %83, 55
  br i1 %84, label %85, label %114

85:                                               ; preds = %79
  %86 = load ptr, ptr %3, align 8
  %87 = getelementptr inbounds i8, ptr %86, i64 0
  %88 = load i8, ptr %87, align 1
  %89 = sext i8 %88 to i32
  %90 = sub nsw i32 %89, 48
  %91 = shl i32 %90, 6
  %92 = trunc i32 %91 to i8
  store i8 %92, ptr %6, align 1
  %93 = load ptr, ptr %3, align 8
  %94 = getelementptr inbounds i8, ptr %93, i64 1
  %95 = load i8, ptr %94, align 1
  %96 = sext i8 %95 to i32
  %97 = sub nsw i32 %96, 48
  %98 = shl i32 %97, 3
  %99 = load i8, ptr %6, align 1
  %100 = sext i8 %99 to i32
  %101 = or i32 %100, %98
  %102 = trunc i32 %101 to i8
  store i8 %102, ptr %6, align 1
  %103 = load ptr, ptr %3, align 8
  %104 = getelementptr inbounds i8, ptr %103, i64 2
  %105 = load i8, ptr %104, align 1
  %106 = sext i8 %105 to i32
  %107 = sub nsw i32 %106, 48
  %108 = load i8, ptr %6, align 1
  %109 = sext i8 %108 to i32
  %110 = or i32 %109, %107
  %111 = trunc i32 %110 to i8
  store i8 %111, ptr %6, align 1
  %112 = load ptr, ptr %3, align 8
  %113 = getelementptr inbounds i8, ptr %112, i64 3
  store ptr %113, ptr %3, align 8
  br label %114

114:                                              ; preds = %85, %79, %73, %67, %61
  br label %142

115:                                              ; preds = %40
  store i8 7, ptr %6, align 1
  %116 = load ptr, ptr %3, align 8
  %117 = getelementptr inbounds i8, ptr %116, i32 1
  store ptr %117, ptr %3, align 8
  br label %142

118:                                              ; preds = %40
  store i8 8, ptr %6, align 1
  %119 = load ptr, ptr %3, align 8
  %120 = getelementptr inbounds i8, ptr %119, i32 1
  store ptr %120, ptr %3, align 8
  br label %142

121:                                              ; preds = %40
  store i8 12, ptr %6, align 1
  %122 = load ptr, ptr %3, align 8
  %123 = getelementptr inbounds i8, ptr %122, i32 1
  store ptr %123, ptr %3, align 8
  br label %142

124:                                              ; preds = %40
  store i8 10, ptr %6, align 1
  %125 = load ptr, ptr %3, align 8
  %126 = getelementptr inbounds i8, ptr %125, i32 1
  store ptr %126, ptr %3, align 8
  br label %142

127:                                              ; preds = %40
  store i8 13, ptr %6, align 1
  %128 = load ptr, ptr %3, align 8
  %129 = getelementptr inbounds i8, ptr %128, i32 1
  store ptr %129, ptr %3, align 8
  br label %142

130:                                              ; preds = %40
  store i8 32, ptr %6, align 1
  %131 = load ptr, ptr %3, align 8
  %132 = getelementptr inbounds i8, ptr %131, i32 1
  store ptr %132, ptr %3, align 8
  br label %142

133:                                              ; preds = %40
  store i8 9, ptr %6, align 1
  %134 = load ptr, ptr %3, align 8
  %135 = getelementptr inbounds i8, ptr %134, i32 1
  store ptr %135, ptr %3, align 8
  br label %142

136:                                              ; preds = %40
  store i8 11, ptr %6, align 1
  %137 = load ptr, ptr %3, align 8
  %138 = getelementptr inbounds i8, ptr %137, i32 1
  store ptr %138, ptr %3, align 8
  br label %142

139:                                              ; preds = %40
  store i8 92, ptr %6, align 1
  %140 = load ptr, ptr %3, align 8
  %141 = getelementptr inbounds i8, ptr %140, i32 1
  store ptr %141, ptr %3, align 8
  br label %142

142:                                              ; preds = %139, %136, %133, %130, %127, %124, %121, %118, %115, %114, %57, %40
  br label %143

143:                                              ; preds = %142, %36
  %144 = load i8, ptr %6, align 1
  %145 = load ptr, ptr %5, align 8
  %146 = getelementptr inbounds i8, ptr %145, i32 1
  store ptr %146, ptr %5, align 8
  store i8 %144, ptr %145, align 1
  br label %18, !llvm.loop !27

147:                                              ; preds = %18
  %148 = load ptr, ptr %5, align 8
  store i8 0, ptr %148, align 1
  ret void
}