; Function Attrs: nofree norecurse nosync nounwind memory(argmem: readwrite) uwtable
define internal fastcc void @parse_escapes(ptr noundef captures(none) %0, ptr noundef writeonly %1) unnamed_addr #11 {
  %.not50 = icmp eq ptr %1, null
  %.pre54 = load i8, ptr %0, align 1
  br i1 %.not50, label %.thread57, label %sub_0

sub_0:                                            ; preds = %2
  %.not51 = icmp eq i8 %.pre54, 46
  br i1 %.not51, label %.tail, label %.tail.thread

.tail:                                            ; preds = %sub_0
  %3 = getelementptr inbounds nuw i8, ptr %0, i64 1
  %4 = load i8, ptr %3, align 1
  %5 = icmp eq i8 %4, 0
  %6 = getelementptr inbounds nuw i8, ptr %1, i64 56
  br i1 %5, label %7, label %.lr.ph.split.preheader

7:                                                ; preds = %.tail
  store i8 1, ptr %6, align 8
  %.pre = load i8, ptr %0, align 1
  br label %.tail.thread

.tail.thread:                                     ; preds = %sub_0, %7
  %8 = phi i8 [ %.pre, %7 ], [ %.pre54, %sub_0 ]
  %.not47 = icmp eq i8 %8, 0
  br i1 %.not47, label %._crit_edge, label %.lr.ph

.thread57:                                        ; preds = %2
  %.not4758 = icmp eq i8 %.pre54, 0
  br i1 %.not4758, label %._crit_edge, label %.lr.ph.split.us

.lr.ph:                                           ; preds = %.tail.thread
  %9 = getelementptr inbounds nuw i8, ptr %1, i64 56
  br label %.lr.ph.split.preheader

.lr.ph.split.preheader:                           ; preds = %.lr.ph, %.tail
  %10 = phi ptr [ %9, %.lr.ph ], [ %6, %.tail ]
  %11 = phi i8 [ %8, %.lr.ph ], [ 46, %.tail ]
  br label %.lr.ph.split

.lr.ph.split.us:                                  ; preds = %.thread57, %54
  %12 = phi i8 [ %56, %54 ], [ %.pre54, %.thread57 ]
  %.03649.us = phi ptr [ %55, %54 ], [ %0, %.thread57 ]
  %.03748.us = phi ptr [ %.1.us, %54 ], [ %0, %.thread57 ]
  %13 = getelementptr inbounds nuw i8, ptr %.03748.us, i64 1
  %14 = icmp eq i8 %12, 92
  br i1 %14, label %15, label %54

15:                                               ; preds = %.lr.ph.split.us
  %16 = load i8, ptr %13, align 1
  switch i8 %16, label %54 [
    i8 48, label %35
    i8 49, label %39
    i8 50, label %39
    i8 51, label %39
    i8 97, label %33
    i8 98, label %31
    i8 102, label %29
    i8 110, label %27
    i8 114, label %25
    i8 115, label %23
    i8 116, label %21
    i8 118, label %19
    i8 92, label %17
  ]

17:                                               ; preds = %15
  %18 = getelementptr inbounds nuw i8, ptr %.03748.us, i64 2
  br label %54

19:                                               ; preds = %15
  %20 = getelementptr inbounds nuw i8, ptr %.03748.us, i64 2
  br label %54

21:                                               ; preds = %15
  %22 = getelementptr inbounds nuw i8, ptr %.03748.us, i64 2
  br label %54

23:                                               ; preds = %15
  %24 = getelementptr inbounds nuw i8, ptr %.03748.us, i64 2
  br label %54

25:                                               ; preds = %15
  %26 = getelementptr inbounds nuw i8, ptr %.03748.us, i64 2
  br label %54

27:                                               ; preds = %15
  %28 = getelementptr inbounds nuw i8, ptr %.03748.us, i64 2
  br label %54

29:                                               ; preds = %15
  %30 = getelementptr inbounds nuw i8, ptr %.03748.us, i64 2
  br label %54

31:                                               ; preds = %15
  %32 = getelementptr inbounds nuw i8, ptr %.03748.us, i64 2
  br label %54

33:                                               ; preds = %15
  %34 = getelementptr inbounds nuw i8, ptr %.03748.us, i64 2
  br label %54

35:                                               ; preds = %15
  %36 = getelementptr inbounds nuw i8, ptr %.03748.us, i64 2
  %37 = load i8, ptr %36, align 1
  %38 = add i8 %37, -56
  %or.cond44.us = icmp ult i8 %38, -8
  br i1 %or.cond44.us, label %54, label %39

39:                                               ; preds = %35, %15, %15, %15
  %40 = getelementptr inbounds nuw i8, ptr %.03748.us, i64 2
  %41 = load i8, ptr %40, align 1
  %42 = and i8 %41, -8
  %or.cond45.us = icmp eq i8 %42, 48
  br i1 %or.cond45.us, label %43, label %54

43:                                               ; preds = %39
  %44 = getelementptr inbounds nuw i8, ptr %.03748.us, i64 3
  %45 = load i8, ptr %44, align 1
  %46 = and i8 %45, -8
  %or.cond46.us = icmp eq i8 %46, 48
  br i1 %or.cond46.us, label %47, label %54

47:                                               ; preds = %43
  %48 = shl i8 %16, 6
  %49 = shl i8 %41, 3
  %50 = and i8 %49, 56
  %51 = or disjoint i8 %50, %48
  %narrow.us = add nsw i8 %45, -48
  %52 = or disjoint i8 %narrow.us, %51
  %53 = getelementptr inbounds nuw i8, ptr %.03748.us, i64 4
  br label %54

54:                                               ; preds = %47, %43, %39, %35, %33, %31, %29, %27, %25, %23, %21, %19, %17, %15, %.lr.ph.split.us
  %.1.us = phi ptr [ %13, %15 ], [ %18, %17 ], [ %20, %19 ], [ %22, %21 ], [ %24, %23 ], [ %26, %25 ], [ %28, %27 ], [ %30, %29 ], [ %32, %31 ], [ %34, %33 ], [ %53, %47 ], [ %13, %43 ], [ %13, %39 ], [ %13, %.lr.ph.split.us ], [ %36, %35 ]
  %.0.us = phi i8 [ 92, %15 ], [ 92, %17 ], [ 11, %19 ], [ 9, %21 ], [ 32, %23 ], [ 13, %25 ], [ 10, %27 ], [ 12, %29 ], [ 8, %31 ], [ 7, %33 ], [ %52, %47 ], [ 92, %43 ], [ 92, %39 ], [ %12, %.lr.ph.split.us ], [ 0, %35 ]
  %55 = getelementptr inbounds nuw i8, ptr %.03649.us, i64 1
  store i8 %.0.us, ptr %.03649.us, align 1
  %56 = load i8, ptr %.1.us, align 1
  %.not.us = icmp eq i8 %56, 0
  br i1 %.not.us, label %._crit_edge, label %.lr.ph.split.us, !llvm.loop !28

.lr.ph.split:                                     ; preds = %.lr.ph.split.preheader, %98
  %57 = phi i8 [ %100, %98 ], [ %11, %.lr.ph.split.preheader ]
  %.03649 = phi ptr [ %99, %98 ], [ %0, %.lr.ph.split.preheader ]
  %.03748 = phi ptr [ %.1, %98 ], [ %0, %.lr.ph.split.preheader ]
  %58 = getelementptr inbounds nuw i8, ptr %.03748, i64 1
  switch i8 %57, label %98 [
    i8 47, label %.thread
    i8 92, label %59
  ]

.thread:                                          ; preds = %.lr.ph.split
  store i8 1, ptr %10, align 8
  br label %98

59:                                               ; preds = %.lr.ph.split
  %60 = load i8, ptr %58, align 1
  switch i8 %60, label %98 [
    i8 48, label %61
    i8 49, label %65
    i8 50, label %65
    i8 51, label %65
    i8 97, label %80
    i8 98, label %82
    i8 102, label %84
    i8 110, label %86
    i8 114, label %88
    i8 115, label %90
    i8 116, label %92
    i8 118, label %94
    i8 92, label %96
  ]

61:                                               ; preds = %59
  %62 = getelementptr inbounds nuw i8, ptr %.03748, i64 2
  %63 = load i8, ptr %62, align 1
  %64 = add i8 %63, -56
  %or.cond44 = icmp ult i8 %64, -8
  br i1 %or.cond44, label %98, label %65

65:                                               ; preds = %61, %59, %59, %59
  %66 = getelementptr inbounds nuw i8, ptr %.03748, i64 2
  %67 = load i8, ptr %66, align 1
  %68 = and i8 %67, -8
  %or.cond45 = icmp eq i8 %68, 48
  br i1 %or.cond45, label %69, label %98

69:                                               ; preds = %65
  %70 = getelementptr inbounds nuw i8, ptr %.03748, i64 3
  %71 = load i8, ptr %70, align 1
  %72 = and i8 %71, -8
  %or.cond46 = icmp eq i8 %72, 48
  br i1 %or.cond46, label %73, label %98

73:                                               ; preds = %69
  %74 = shl i8 %60, 6
  %75 = shl i8 %67, 3
  %76 = and i8 %75, 56
  %77 = or disjoint i8 %76, %74
  %narrow = add nsw i8 %71, -48
  %78 = or disjoint i8 %narrow, %77
  %79 = getelementptr inbounds nuw i8, ptr %.03748, i64 4
  br label %98

80:                                               ; preds = %59
  %81 = getelementptr inbounds nuw i8, ptr %.03748, i64 2
  br label %98

82:                                               ; preds = %59
  %83 = getelementptr inbounds nuw i8, ptr %.03748, i64 2
  br label %98

84:                                               ; preds = %59
  %85 = getelementptr inbounds nuw i8, ptr %.03748, i64 2
  br label %98

86:                                               ; preds = %59
  %87 = getelementptr inbounds nuw i8, ptr %.03748, i64 2
  br label %98

88:                                               ; preds = %59
  %89 = getelementptr inbounds nuw i8, ptr %.03748, i64 2
  br label %98

90:                                               ; preds = %59
  %91 = getelementptr inbounds nuw i8, ptr %.03748, i64 2
  br label %98

92:                                               ; preds = %59
  %93 = getelementptr inbounds nuw i8, ptr %.03748, i64 2
  br label %98

94:                                               ; preds = %59
  %95 = getelementptr inbounds nuw i8, ptr %.03748, i64 2
  br label %98

96:                                               ; preds = %59
  %97 = getelementptr inbounds nuw i8, ptr %.03748, i64 2
  br label %98

98:                                               ; preds = %.lr.ph.split, %.thread, %61, %59, %80, %82, %84, %86, %88, %90, %92, %94, %96, %73, %69, %65
  %.1 = phi ptr [ %58, %59 ], [ %97, %96 ], [ %95, %94 ], [ %93, %92 ], [ %91, %90 ], [ %89, %88 ], [ %87, %86 ], [ %85, %84 ], [ %83, %82 ], [ %81, %80 ], [ %79, %73 ], [ %58, %69 ], [ %58, %65 ], [ %62, %61 ], [ %58, %.thread ], [ %58, %.lr.ph.split ]
  %.0 = phi i8 [ 92, %59 ], [ 92, %96 ], [ 11, %94 ], [ 9, %92 ], [ 32, %90 ], [ 13, %88 ], [ 10, %86 ], [ 12, %84 ], [ 8, %82 ], [ 7, %80 ], [ %78, %73 ], [ 92, %69 ], [ 92, %65 ], [ 0, %61 ], [ 47, %.thread ], [ %57, %.lr.ph.split ]
  %99 = getelementptr inbounds nuw i8, ptr %.03649, i64 1
  store i8 %.0, ptr %.03649, align 1
  %100 = load i8, ptr %.1, align 1
  %.not = icmp eq i8 %100, 0
  br i1 %.not, label %._crit_edge, label %.lr.ph.split, !llvm.loop !28

._crit_edge:                                      ; preds = %98, %54, %.thread57, %.tail.thread
  %.036.lcssa = phi ptr [ %0, %.tail.thread ], [ %0, %.thread57 ], [ %55, %54 ], [ %99, %98 ]
  store i8 0, ptr %.036.lcssa, align 1
  ret void
}